; Function Attrs: mustprogress nounwind willreturn uwtable
define void @lsrkStep_Free(ptr noundef captures(address_is_null) %0) #3 {
  %2 = icmp eq ptr %0, null
  br i1 %2, label %28, label %3

3:                                                ; preds = %1
  %4 = getelementptr inbounds nuw i8, ptr %0, i64 136
  %5 = load ptr, ptr %4, align 8, !tbaa !3
  %.not = icmp eq ptr %5, null
  br i1 %.not, label %28, label %6

6:                                                ; preds = %3
  %7 = getelementptr inbounds nuw i8, ptr %5, i64 144
  %8 = load ptr, ptr %7, align 8, !tbaa !17
  %.not18 = icmp eq ptr %8, null
  br i1 %.not18, label %16, label %9

9:                                                ; preds = %6
  tail call void @free(ptr noundef nonnull %8) #13
  store ptr null, ptr %7, align 8, !tbaa !17
  %10 = getelementptr inbounds nuw i8, ptr %5, i64 160
  %11 = load i32, ptr %10, align 8, !tbaa !21
  %12 = sext i32 %11 to i64
  %13 = getelementptr inbounds nuw i8, ptr %0, i64 872
  %14 = load i64, ptr %13, align 8, !tbaa !22
  %15 = sub nsw i64 %14, %12
  store i64 %15, ptr %13, align 8, !tbaa !22
  br label %16

16:                                               ; preds = %9, %6
  %17 = getelementptr inbounds nuw i8, ptr %5, i64 152
  %18 = load ptr, ptr %17, align 8, !tbaa !23
  %.not19 = icmp eq ptr %18, null
  br i1 %.not19, label %26, label %19

19:                                               ; preds = %16
  tail call void @free(ptr noundef nonnull %18) #13
  store ptr null, ptr %17, align 8, !tbaa !23
  %20 = getelementptr inbounds nuw i8, ptr %5, i64 160
  %21 = load i32, ptr %20, align 8, !tbaa !21
  %22 = sext i32 %21 to i64
  %23 = getelementptr inbounds nuw i8, ptr %0, i64 880
  %24 = load i64, ptr %23, align 8, !tbaa !24
  %25 = sub nsw i64 %24, %22
  store i64 %25, ptr %23, align 8, !tbaa !24
  br label %26

26:                                               ; preds = %19, %16
  %27 = load ptr, ptr %4, align 8, !tbaa !3
  tail call void @free(ptr noundef %27) #13
  store ptr null, ptr %4, align 8, !tbaa !3
  br label %28

28:                                               ; preds = %3, %26, %1
  ret void
}